target datalayout = "e-m:e-p270:32:32-p271:32:32-p272:64:64-i64:64-i128:128-f80:128-n8:16:32:64-S128"
target triple = "x86_64-pc-linux-gnu"

%struct.mbedtls_ssl_context = type { ptr, i32, i32, i32, i32, i32, ptr, ptr, ptr, ptr, ptr, ptr, ptr, ptr, ptr, ptr, ptr, ptr, ptr, ptr, ptr, ptr, ptr, ptr, ptr, ptr, ptr, ptr, ptr, ptr, ptr, ptr, ptr, i32, i64, i64, i16, i64, i64, i64, i64, i32, i32, i8, i8, i32, i8, ptr, ptr, ptr, ptr, ptr, ptr, ptr, i32, i64, i64, [8 x i8], i16, ptr, ptr, ptr, i64, i32, i64, [12 x i8], [12 x i8], [32 x i8], i8, i8, ptr, ptr, %union.mbedtls_ssl_user_data_t }
%union.mbedtls_ssl_user_data_t = type { i64 }
%struct.mbedtls_ssl_config = type { i32, i32, i8, i8, i8, i8, i8, i8, i8, i8, i8, i8, i16, i8, i8, i8, ptr, i32, ptr, ptr, ptr, ptr, ptr, ptr, ptr, ptr, ptr, ptr, ptr, ptr, ptr, ptr, ptr, ptr, ptr, ptr, ptr, i64, ptr, ptr, ptr, ptr, ptr, ptr, ptr, ptr, %struct.mbedtls_mpi, %struct.mbedtls_mpi, ptr, i64, ptr, i64, ptr, i32, i32, i32, i32, [8 x i8], i32, i32, %union.mbedtls_ssl_user_data_t, ptr, ptr }
%struct.mbedtls_mpi = type { ptr, i16, i16 }
%struct.mbedtls_ecp_point = type { %struct.mbedtls_mpi, %struct.mbedtls_mpi, %struct.mbedtls_mpi }

@debug_threshold = internal global i32 0, align 4
@.str.6 = private unnamed_addr constant [6 x i8] c"%s(X)\00", align 1
@.str.7 = private unnamed_addr constant [6 x i8] c"%s(Y)\00", align 1

; Function Attrs: nounwind uwtable
define hidden void @mbedtls_debug_print_ecp(ptr noundef %0, i32 noundef %1, ptr noundef %2, i32 noundef %3, ptr noundef %4, ptr noundef %5) #0 {
  %7 = alloca ptr, align 8
  %8 = alloca i32, align 4
  %9 = alloca ptr, align 8
  %10 = alloca i32, align 4
  %11 = alloca ptr, align 8
  %12 = alloca ptr, align 8
  %13 = alloca [512 x i8], align 16
  %14 = alloca i32, align 4
  store ptr %0, ptr %7, align 8, !tbaa !7
  store i32 %1, ptr %8, align 4, !tbaa !3
  store ptr %2, ptr %9, align 8, !tbaa !10
  store i32 %3, ptr %10, align 4, !tbaa !3
  store ptr %4, ptr %11, align 8, !tbaa !10
  store ptr %5, ptr %12, align 8, !tbaa !38
  call void @llvm.lifetime.start.p0(i64 512, ptr %13) #8
  %15 = load ptr, ptr %7, align 8, !tbaa !7
  %16 = icmp eq ptr null, %15
  br i1 %16, label %33, label %17

17:                                               ; preds = %6
  %18 = load ptr, ptr %7, align 8, !tbaa !7
  %19 = getelementptr inbounds nuw %struct.mbedtls_ssl_context, ptr %18, i32 0, i32 0
  %20 = load ptr, ptr %19, align 8, !tbaa !12
  %21 = icmp eq ptr null, %20
  br i1 %21, label %33, label %22

22:                                               ; preds = %17
  %23 = load ptr, ptr %7, align 8, !tbaa !7
  %24 = getelementptr inbounds nuw %struct.mbedtls_ssl_context, ptr %23, i32 0, i32 0
  %25 = load ptr, ptr %24, align 8, !tbaa !12
  %26 = getelementptr inbounds nuw %struct.mbedtls_ssl_config, ptr %25, i32 0, i32 18
  %27 = load ptr, ptr %26, align 8, !tbaa !20
  %28 = icmp eq ptr null, %27
  br i1 %28, label %33, label %29

29:                                               ; preds = %22
  %30 = load i32, ptr %8, align 4, !tbaa !3
  %31 = load i32, ptr @debug_threshold, align 4, !tbaa !3
  %32 = icmp sgt i32 %30, %31
  br i1 %32, label %33, label %34

33:                                               ; preds = %29, %22, %17, %6
  store i32 1, ptr %14, align 4
  br label %55

34:                                               ; preds = %29
  %35 = getelementptr inbounds [512 x i8], ptr %13, i64 0, i64 0
  %36 = load ptr, ptr %11, align 8, !tbaa !10
  %37 = call i32 (ptr, i64, ptr, ...) @snprintf(ptr noundef %35, i64 noundef 512, ptr noundef @.str.6, ptr noundef %36) #8
  %38 = load ptr, ptr %7, align 8, !tbaa !7
  %39 = load i32, ptr %8, align 4, !tbaa !3
  %40 = load ptr, ptr %9, align 8, !tbaa !10
  %41 = load i32, ptr %10, align 4, !tbaa !3
  %42 = getelementptr inbounds [512 x i8], ptr %13, i64 0, i64 0
  %43 = load ptr, ptr %12, align 8, !tbaa !38
  %44 = getelementptr inbounds nuw %struct.mbedtls_ecp_point, ptr %43, i32 0, i32 0
  call void @mbedtls_debug_print_mpi(ptr noundef %38, i32 noundef %39, ptr noundef %40, i32 noundef %41, ptr noundef %42, ptr noundef %44)
  %45 = getelementptr inbounds [512 x i8], ptr %13, i64 0, i64 0
  %46 = load ptr, ptr %11, align 8, !tbaa !10
  %47 = call i32 (ptr, i64, ptr, ...) @snprintf(ptr noundef %45, i64 noundef 512, ptr noundef @.str.7, ptr noundef %46) #8
  %48 = load ptr, ptr %7, align 8, !tbaa !7
  %49 = load i32, ptr %8, align 4, !tbaa !3
  %50 = load ptr, ptr %9, align 8, !tbaa !10
  %51 = load i32, ptr %10, align 4, !tbaa !3
  %52 = getelementptr inbounds [512 x i8], ptr %13, i64 0, i64 0
  %53 = load ptr, ptr %12, align 8, !tbaa !38
  %54 = getelementptr inbounds nuw %struct.mbedtls_ecp_point, ptr %53, i32 0, i32 1
  call void @mbedtls_debug_print_mpi(ptr noundef %48, i32 noundef %49, ptr noundef %50, i32 noundef %51, ptr noundef %52, ptr noundef %54)
  store i32 0, ptr %14, align 4
  br label %55

55:                                               ; preds = %34, %33
  call void @llvm.lifetime.end.p0(i64 512, ptr %13) #8
  %56 = load i32, ptr %14, align 4
  switch i32 %56, label %58 [
    i32 0, label %57
    i32 1, label %57
  ]

57:                                               ; preds = %55, %55
  ret void

58:                                               ; preds = %55
  unreachable
}