; Function Attrs: nounwind uwtable
define hidden void @mbedtls_debug_print_ecp(ptr noundef %0, i32 noundef %1, ptr noundef %2, i32 noundef %3, ptr noundef %4, ptr noundef %5) local_unnamed_addr #1 {
  %7 = alloca [512 x i8], align 16
  call void @llvm.lifetime.start.p0(i64 512, ptr nonnull %7) #9
  %8 = icmp eq ptr %0, null
  br i1 %8, label %22, label %9

9:                                                ; preds = %6
  %10 = load ptr, ptr %0, align 8, !tbaa !7
  %11 = icmp eq ptr %10, null
  br i1 %11, label %22, label %12

12:                                               ; preds = %9
  %13 = getelementptr inbounds nuw i8, ptr %10, i64 40
  %14 = load ptr, ptr %13, align 8, !tbaa !17
  %15 = icmp eq ptr %14, null
  %16 = load i32, ptr @debug_threshold, align 4
  %17 = icmp sgt i32 %1, %16
  %or.cond = select i1 %15, i1 true, i1 %17
  br i1 %or.cond, label %22, label %18

18:                                               ; preds = %12
  %19 = call i32 (ptr, i64, ptr, ...) @snprintf(ptr noundef nonnull dereferenceable(1) %7, i64 noundef 512, ptr noundef nonnull @.str.6, ptr noundef %4) #9
  call void @mbedtls_debug_print_mpi(ptr noundef nonnull %0, i32 noundef %1, ptr noundef %2, i32 noundef %3, ptr noundef nonnull %7, ptr noundef %5)
  %20 = call i32 (ptr, i64, ptr, ...) @snprintf(ptr noundef nonnull dereferenceable(1) %7, i64 noundef 512, ptr noundef nonnull @.str.7, ptr noundef %4) #9
  %21 = getelementptr inbounds nuw i8, ptr %5, i64 16
  call void @mbedtls_debug_print_mpi(ptr noundef nonnull %0, i32 noundef %1, ptr noundef %2, i32 noundef %3, ptr noundef nonnull %7, ptr noundef nonnull %21)
  br label %22

22:                                               ; preds = %6, %9, %12, %18
  call void @llvm.lifetime.end.p0(i64 512, ptr nonnull %7) #9
  ret void
}